target datalayout = "e-m:e-p270:32:32-p271:32:32-p272:64:64-i64:64-i128:128-f80:128-n8:16:32:64-S128"
target triple = "x86_64-pc-linux-gnu"

%struct.Gia_Man_t_ = type { ptr, ptr, i32, i32, i32, i32, ptr, ptr, i32, i32, i32, ptr, ptr, %struct.Vec_Int_t_, %struct.Vec_Int_t_, i32, i32, i32, %struct.Vec_Int_t_, ptr, ptr, ptr, i32, i32, i32, i32, ptr, ptr, ptr, ptr, ptr, i32, i32, ptr, i32, ptr, ptr, ptr, ptr, ptr, ptr, ptr, ptr, ptr, ptr, ptr, ptr, ptr, ptr, ptr, ptr, ptr, ptr, %struct.Vec_Int_t_, %struct.Vec_Int_t_, ptr, ptr, ptr, ptr, ptr, ptr, ptr, ptr, ptr, ptr, ptr, ptr, ptr, ptr, ptr, ptr, ptr, ptr, ptr, ptr, ptr, i32, float, float, ptr, ptr, i32, ptr, ptr, ptr, ptr, ptr, ptr, ptr, ptr, ptr, ptr, ptr, ptr, ptr, ptr, ptr, i64, i64, ptr, ptr, i32, i32, i32, i32, i32, i32, i32, i32, i32, i32, i32, i32, ptr, ptr, ptr, ptr, ptr, ptr, ptr, ptr, i32, i32, i32, ptr, i32, i32, ptr, ptr, ptr, ptr, ptr, ptr, i32, i32, ptr, %struct.Vec_Int_t_, %struct.Vec_Int_t_, %struct.Vec_Int_t_, ptr, ptr, ptr, i32, i32, i32, i32, ptr, ptr, ptr, ptr, ptr }
%struct.Vec_Int_t_ = type { i32, i32, ptr }
%struct.Gia_Obj_t_ = type <{ i64, i32 }>

; Function Attrs: inlinehint nounwind uwtable
define internal i32 @Gia_ObjFaninId0(ptr noundef %0, i32 noundef %1) #3 {
  %3 = alloca ptr, align 8
  %4 = alloca i32, align 4
  store ptr %0, ptr %3, align 8, !tbaa !72
  store i32 %1, ptr %4, align 4, !tbaa !42
  %5 = load i32, ptr %4, align 4, !tbaa !42
  %6 = load ptr, ptr %3, align 8, !tbaa !72
  %7 = load i64, ptr %6, align 4
  %8 = and i64 %7, 536870911
  %9 = trunc i64 %8 to i32
  %10 = sub nsw i32 %5, %9
  ret i32 %10
}

; Function Attrs: inlinehint nounwind uwtable
define internal ptr @Gia_ManObj(ptr noundef %0, i32 noundef %1) #3 {
  %3 = alloca ptr, align 8
  %4 = alloca i32, align 4
  store ptr %0, ptr %3, align 8, !tbaa !40
  store i32 %1, ptr %4, align 4, !tbaa !42
  %5 = load ptr, ptr %3, align 8, !tbaa !40
  %6 = getelementptr inbounds nuw %struct.Gia_Man_t_, ptr %5, i32 0, i32 6
  %7 = load ptr, ptr %6, align 8, !tbaa !76
  %8 = load i32, ptr %4, align 4, !tbaa !42
  %9 = sext i32 %8 to i64
  %10 = getelementptr inbounds %struct.Gia_Obj_t_, ptr %7, i64 %9
  ret ptr %10
}

; Function Attrs: inlinehint nounwind uwtable
define internal ptr @Vec_IntEntryP(ptr noundef %0, i32 noundef %1) #3 {
  %3 = alloca ptr, align 8
  %4 = alloca i32, align 4
  store ptr %0, ptr %3, align 8, !tbaa !74
  store i32 %1, ptr %4, align 4, !tbaa !42
  %5 = load ptr, ptr %3, align 8, !tbaa !74
  %6 = getelementptr inbounds nuw %struct.Vec_Int_t_, ptr %5, i32 0, i32 2
  %7 = load ptr, ptr %6, align 8, !tbaa !94
  %8 = load i32, ptr %4, align 4, !tbaa !42
  %9 = sext i32 %8 to i64
  %10 = getelementptr inbounds i32, ptr %7, i64 %9
  ret ptr %10
}

; Function Attrs: inlinehint nounwind uwtable
define internal i32 @Vec_IntEntry(ptr noundef %0, i32 noundef %1) #3 {
  %3 = alloca ptr, align 8
  %4 = alloca i32, align 4
  store ptr %0, ptr %3, align 8, !tbaa !74
  store i32 %1, ptr %4, align 4, !tbaa !42
  %5 = load ptr, ptr %3, align 8, !tbaa !74
  %6 = getelementptr inbounds nuw %struct.Vec_Int_t_, ptr %5, i32 0, i32 2
  %7 = load ptr, ptr %6, align 8, !tbaa !94
  %8 = load i32, ptr %4, align 4, !tbaa !42
  %9 = sext i32 %8 to i64
  %10 = getelementptr inbounds i32, ptr %7, i64 %9
  %11 = load i32, ptr %10, align 4, !tbaa !42
  ret i32 %11
}

; Function Attrs: inlinehint nounwind uwtable
define internal i32 @Gia_ObjId(ptr noundef %0, ptr noundef %1) #3 {
  %3 = alloca ptr, align 8
  %4 = alloca ptr, align 8
  store ptr %0, ptr %3, align 8, !tbaa !40
  store ptr %1, ptr %4, align 8, !tbaa !72
  %5 = load ptr, ptr %4, align 8, !tbaa !72
  %6 = load ptr, ptr %3, align 8, !tbaa !40
  %7 = getelementptr inbounds nuw %struct.Gia_Man_t_, ptr %6, i32 0, i32 6
  %8 = load ptr, ptr %7, align 8, !tbaa !76
  %9 = ptrtoint ptr %5 to i64
  %10 = ptrtoint ptr %8 to i64
  %11 = sub i64 %9, %10
  %12 = sdiv exact i64 %11, 12
  %13 = trunc i64 %12 to i32
  ret i32 %13
}

; Function Attrs: inlinehint nounwind uwtable
define internal i32 @Abc_MaxInt(i32 noundef %0, i32 noundef %1) #3 {
  %3 = alloca i32, align 4
  %4 = alloca i32, align 4
  store i32 %0, ptr %3, align 4, !tbaa !42
  store i32 %1, ptr %4, align 4, !tbaa !42
  %5 = load i32, ptr %3, align 4, !tbaa !42
  %6 = load i32, ptr %4, align 4, !tbaa !42
  %7 = icmp sgt i32 %5, %6
  br i1 %7, label %8, label %10

8:                                                ; preds = %2
  %9 = load i32, ptr %3, align 4, !tbaa !42
  br label %12

10:                                               ; preds = %2
  %11 = load i32, ptr %4, align 4, !tbaa !42
  br label %12

12:                                               ; preds = %10, %8
  %13 = phi i32 [ %9, %8 ], [ %11, %10 ]
  ret i32 %13
}

; Function Attrs: inlinehint nounwind uwtable
define internal i32 @Gia_ObjFaninId0p(ptr noundef %0, ptr noundef %1) #3 {
  %3 = alloca ptr, align 8
  %4 = alloca ptr, align 8
  store ptr %0, ptr %3, align 8, !tbaa !40
  store ptr %1, ptr %4, align 8, !tbaa !72
  %5 = load ptr, ptr %4, align 8, !tbaa !72
  %6 = load ptr, ptr %3, align 8, !tbaa !40
  %7 = load ptr, ptr %4, align 8, !tbaa !72
  %8 = call i32 @Gia_ObjId(ptr noundef %6, ptr noundef %7)
  %9 = call i32 @Gia_ObjFaninId0(ptr noundef %5, i32 noundef %8)
  ret i32 %9
}

; Function Attrs: inlinehint nounwind uwtable
define internal ptr @Gia_ManCo(ptr noundef %0, i32 noundef %1) #3 {
  %3 = alloca ptr, align 8
  %4 = alloca i32, align 4
  store ptr %0, ptr %3, align 8, !tbaa !40
  store i32 %1, ptr %4, align 4, !tbaa !42
  %5 = load ptr, ptr %3, align 8, !tbaa !40
  %6 = load ptr, ptr %3, align 8, !tbaa !40
  %7 = getelementptr inbounds nuw %struct.Gia_Man_t_, ptr %6, i32 0, i32 12
  %8 = load ptr, ptr %7, align 8, !tbaa !71
  %9 = load i32, ptr %4, align 4, !tbaa !42
  %10 = call i32 @Vec_IntEntry(ptr noundef %8, i32 noundef %9)
  %11 = call ptr @Gia_ManObj(ptr noundef %5, i32 noundef %10)
  ret ptr %11
}

; Function Attrs: inlinehint nounwind uwtable
define internal i32 @Vec_IntSize(ptr noundef %0) #3 {
  %2 = alloca ptr, align 8
  store ptr %0, ptr %2, align 8, !tbaa !74
  %3 = load ptr, ptr %2, align 8, !tbaa !74
  %4 = getelementptr inbounds nuw %struct.Vec_Int_t_, ptr %3, i32 0, i32 1
  %5 = load i32, ptr %4, align 4, !tbaa !75
  ret i32 %5
}

; Function Attrs: inlinehint nounwind uwtable
define internal ptr @Gia_ObjLutFanins(ptr noundef %0, i32 noundef %1) #3 {
  %3 = alloca ptr, align 8
  %4 = alloca i32, align 4
  store ptr %0, ptr %3, align 8, !tbaa !40
  store i32 %1, ptr %4, align 4, !tbaa !42
  %5 = load ptr, ptr %3, align 8, !tbaa !40
  %6 = getelementptr inbounds nuw %struct.Gia_Man_t_, ptr %5, i32 0, i32 37
  %7 = load ptr, ptr %6, align 8, !tbaa !63
  %8 = load ptr, ptr %3, align 8, !tbaa !40
  %9 = getelementptr inbounds nuw %struct.Gia_Man_t_, ptr %8, i32 0, i32 37
  %10 = load ptr, ptr %9, align 8, !tbaa !63
  %11 = load i32, ptr %4, align 4, !tbaa !42
  %12 = call i32 @Vec_IntEntry(ptr noundef %10, i32 noundef %11)
  %13 = call ptr @Vec_IntEntryP(ptr noundef %7, i32 noundef %12)
  %14 = getelementptr inbounds i32, ptr %13, i64 1
  ret ptr %14
}

; Function Attrs: inlinehint nounwind uwtable
define internal i32 @Gia_ObjLutSize(ptr noundef %0, i32 noundef %1) #3 {
  %3 = alloca ptr, align 8
  %4 = alloca i32, align 4
  store ptr %0, ptr %3, align 8, !tbaa !40
  store i32 %1, ptr %4, align 4, !tbaa !42
  %5 = load ptr, ptr %3, align 8, !tbaa !40
  %6 = getelementptr inbounds nuw %struct.Gia_Man_t_, ptr %5, i32 0, i32 37
  %7 = load ptr, ptr %6, align 8, !tbaa !63
  %8 = load ptr, ptr %3, align 8, !tbaa !40
  %9 = getelementptr inbounds nuw %struct.Gia_Man_t_, ptr %8, i32 0, i32 37
  %10 = load ptr, ptr %9, align 8, !tbaa !63
  %11 = load i32, ptr %4, align 4, !tbaa !42
  %12 = call i32 @Vec_IntEntry(ptr noundef %10, i32 noundef %11)
  %13 = call i32 @Vec_IntEntry(ptr noundef %7, i32 noundef %12)
  ret i32 %13
}

; Function Attrs: inlinehint nounwind uwtable
define internal i32 @Gia_ObjIsLut(ptr noundef %0, i32 noundef %1) #3 {
  %3 = alloca ptr, align 8
  %4 = alloca i32, align 4
  store ptr %0, ptr %3, align 8, !tbaa !40
  store i32 %1, ptr %4, align 4, !tbaa !42
  %5 = load ptr, ptr %3, align 8, !tbaa !40
  %6 = getelementptr inbounds nuw %struct.Gia_Man_t_, ptr %5, i32 0, i32 37
  %7 = load ptr, ptr %6, align 8, !tbaa !63
  %8 = load i32, ptr %4, align 4, !tbaa !42
  %9 = call i32 @Vec_IntEntry(ptr noundef %7, i32 noundef %8)
  %10 = icmp ne i32 %9, 0
  %11 = zext i1 %10 to i32
  ret i32 %11
}

; Function Attrs: inlinehint nounwind uwtable
define internal i32 @Gia_ManObjNum(ptr noundef %0) #3 {
  %2 = alloca ptr, align 8
  store ptr %0, ptr %2, align 8, !tbaa !40
  %3 = load ptr, ptr %2, align 8, !tbaa !40
  %4 = getelementptr inbounds nuw %struct.Gia_Man_t_, ptr %3, i32 0, i32 4
  %5 = load i32, ptr %4, align 8, !tbaa !45
  ret i32 %5
}

; Function Attrs: nounwind uwtable
define i32 @Gia_ManLutLevel(ptr noundef %0, ptr noundef %1) #0 {
  %3 = alloca ptr, align 8
  %4 = alloca ptr, align 8
  %5 = alloca ptr, align 8
  %6 = alloca i32, align 4
  %7 = alloca i32, align 4
  %8 = alloca i32, align 4
  %9 = alloca i32, align 4
  %10 = alloca ptr, align 8
  %11 = alloca i32, align 4
  store ptr %0, ptr %3, align 8, !tbaa !40
  store ptr %1, ptr %4, align 8, !tbaa !66
  call void @llvm.lifetime.start.p0(i64 8, ptr %5) #14
  call void @llvm.lifetime.start.p0(i64 4, ptr %6) #14
  call void @llvm.lifetime.start.p0(i64 4, ptr %7) #14
  call void @llvm.lifetime.start.p0(i64 4, ptr %8) #14
  call void @llvm.lifetime.start.p0(i64 4, ptr %9) #14
  call void @llvm.lifetime.start.p0(i64 8, ptr %10) #14
  %12 = load ptr, ptr %3, align 8, !tbaa !40
  %13 = call i32 @Gia_ManObjNum(ptr noundef %12)
  %14 = sext i32 %13 to i64
  %15 = call noalias ptr @calloc(i64 noundef %14, i64 noundef 4) #15
  store ptr %15, ptr %10, align 8, !tbaa !68
  store i32 1, ptr %6, align 4, !tbaa !42
  br label %16

16:                                               ; preds = %70, %2
  %17 = load i32, ptr %6, align 4, !tbaa !42
  %18 = load ptr, ptr %3, align 8, !tbaa !40
  %19 = call i32 @Gia_ManObjNum(ptr noundef %18)
  %20 = icmp slt i32 %17, %19
  br i1 %20, label %21, label %73

21:                                               ; preds = %16
  %22 = load ptr, ptr %3, align 8, !tbaa !40
  %23 = load i32, ptr %6, align 4, !tbaa !42
  %24 = call i32 @Gia_ObjIsLut(ptr noundef %22, i32 noundef %23)
  %25 = icmp ne i32 %24, 0
  br i1 %25, label %27, label %26

26:                                               ; preds = %21
  br label %69

27:                                               ; preds = %21
  store i32 0, ptr %9, align 4, !tbaa !42
  store i32 0, ptr %7, align 4, !tbaa !42
  br label %28

28:                                               ; preds = %59, %27
  %29 = load i32, ptr %7, align 4, !tbaa !42
  %30 = load ptr, ptr %3, align 8, !tbaa !40
  %31 = load i32, ptr %6, align 4, !tbaa !42
  %32 = call i32 @Gia_ObjLutSize(ptr noundef %30, i32 noundef %31)
  %33 = icmp slt i32 %29, %32
  br i1 %33, label %34, label %42

34:                                               ; preds = %28
  %35 = load ptr, ptr %3, align 8, !tbaa !40
  %36 = load i32, ptr %6, align 4, !tbaa !42
  %37 = call ptr @Gia_ObjLutFanins(ptr noundef %35, i32 noundef %36)
  %38 = load i32, ptr %7, align 4, !tbaa !42
  %39 = sext i32 %38 to i64
  %40 = getelementptr inbounds i32, ptr %37, i64 %39
  %41 = load i32, ptr %40, align 4, !tbaa !42
  store i32 %41, ptr %8, align 4, !tbaa !42
  br label %42

42:                                               ; preds = %34, %28
  %43 = phi i1 [ false, %28 ], [ true, %34 ]
  br i1 %43, label %44, label %62

44:                                               ; preds = %42
  %45 = load i32, ptr %9, align 4, !tbaa !42
  %46 = load ptr, ptr %10, align 8, !tbaa !68
  %47 = load i32, ptr %8, align 4, !tbaa !42
  %48 = sext i32 %47 to i64
  %49 = getelementptr inbounds i32, ptr %46, i64 %48
  %50 = load i32, ptr %49, align 4, !tbaa !42
  %51 = icmp slt i32 %45, %50
  br i1 %51, label %52, label %58

52:                                               ; preds = %44
  %53 = load ptr, ptr %10, align 8, !tbaa !68
  %54 = load i32, ptr %8, align 4, !tbaa !42
  %55 = sext i32 %54 to i64
  %56 = getelementptr inbounds i32, ptr %53, i64 %55
  %57 = load i32, ptr %56, align 4, !tbaa !42
  store i32 %57, ptr %9, align 4, !tbaa !42
  br label %58

58:                                               ; preds = %52, %44
  br label %59

59:                                               ; preds = %58
  %60 = load i32, ptr %7, align 4, !tbaa !42
  %61 = add nsw i32 %60, 1
  store i32 %61, ptr %7, align 4, !tbaa !42
  br label %28, !llvm.loop !69

62:                                               ; preds = %42
  %63 = load i32, ptr %9, align 4, !tbaa !42
  %64 = add nsw i32 %63, 1
  %65 = load ptr, ptr %10, align 8, !tbaa !68
  %66 = load i32, ptr %6, align 4, !tbaa !42
  %67 = sext i32 %66 to i64
  %68 = getelementptr inbounds i32, ptr %65, i64 %67
  store i32 %64, ptr %68, align 4, !tbaa !42
  br label %69

69:                                               ; preds = %62, %26
  br label %70

70:                                               ; preds = %69
  %71 = load i32, ptr %6, align 4, !tbaa !42
  %72 = add nsw i32 %71, 1
  store i32 %72, ptr %6, align 4, !tbaa !42
  br label %16, !llvm.loop !70

73:                                               ; preds = %16
  store i32 0, ptr %9, align 4, !tbaa !42
  store i32 0, ptr %7, align 4, !tbaa !42
  br label %74

74:                                               ; preds = %106, %73
  %75 = load i32, ptr %7, align 4, !tbaa !42
  %76 = load ptr, ptr %3, align 8, !tbaa !40
  %77 = getelementptr inbounds nuw %struct.Gia_Man_t_, ptr %76, i32 0, i32 12
  %78 = load ptr, ptr %77, align 8, !tbaa !71
  %79 = call i32 @Vec_IntSize(ptr noundef %78)
  %80 = icmp slt i32 %75, %79
  br i1 %80, label %81, label %86

81:                                               ; preds = %74
  %82 = load ptr, ptr %3, align 8, !tbaa !40
  %83 = load i32, ptr %7, align 4, !tbaa !42
  %84 = call ptr @Gia_ManCo(ptr noundef %82, i32 noundef %83)
  store ptr %84, ptr %5, align 8, !tbaa !72
  %85 = icmp ne ptr %84, null
  br label %86

86:                                               ; preds = %81, %74
  %87 = phi i1 [ false, %74 ], [ %85, %81 ]
  br i1 %87, label %88, label %109

88:                                               ; preds = %86
  call void @llvm.lifetime.start.p0(i64 4, ptr %11) #14
  %89 = load ptr, ptr %10, align 8, !tbaa !68
  %90 = load ptr, ptr %3, align 8, !tbaa !40
  %91 = load ptr, ptr %5, align 8, !tbaa !72
  %92 = call i32 @Gia_ObjFaninId0p(ptr noundef %90, ptr noundef %91)
  %93 = sext i32 %92 to i64
  %94 = getelementptr inbounds i32, ptr %89, i64 %93
  %95 = load i32, ptr %94, align 4, !tbaa !42
  store i32 %95, ptr %11, align 4, !tbaa !42
  %96 = load i32, ptr %9, align 4, !tbaa !42
  %97 = load i32, ptr %11, align 4, !tbaa !42
  %98 = call i32 @Abc_MaxInt(i32 noundef %96, i32 noundef %97)
  store i32 %98, ptr %9, align 4, !tbaa !42
  %99 = load i32, ptr %11, align 4, !tbaa !42
  %100 = load ptr, ptr %10, align 8, !tbaa !68
  %101 = load ptr, ptr %3, align 8, !tbaa !40
  %102 = load ptr, ptr %5, align 8, !tbaa !72
  %103 = call i32 @Gia_ObjId(ptr noundef %101, ptr noundef %102)
  %104 = sext i32 %103 to i64
  %105 = getelementptr inbounds i32, ptr %100, i64 %104
  store i32 %99, ptr %105, align 4, !tbaa !42
  call void @llvm.lifetime.end.p0(i64 4, ptr %11) #14
  br label %106

106:                                              ; preds = %88
  %107 = load i32, ptr %7, align 4, !tbaa !42
  %108 = add nsw i32 %107, 1
  store i32 %108, ptr %7, align 4, !tbaa !42
  br label %74, !llvm.loop !73

109:                                              ; preds = %86
  %110 = load ptr, ptr %4, align 8, !tbaa !66
  %111 = icmp ne ptr %110, null
  br i1 %111, label %112, label %115

112:                                              ; preds = %109
  %113 = load ptr, ptr %10, align 8, !tbaa !68
  %114 = load ptr, ptr %4, align 8, !tbaa !66
  store ptr %113, ptr %114, align 8, !tbaa !68
  br label %122

115:                                              ; preds = %109
  %116 = load ptr, ptr %10, align 8, !tbaa !68
  %117 = icmp ne ptr %116, null
  br i1 %117, label %118, label %120

118:                                              ; preds = %115
  %119 = load ptr, ptr %10, align 8, !tbaa !68
  call void @free(ptr noundef %119) #14
  store ptr null, ptr %10, align 8, !tbaa !68
  br label %121

120:                                              ; preds = %115
  br label %121

121:                                              ; preds = %120, %118
  br label %122

122:                                              ; preds = %121, %112
  %123 = load i32, ptr %9, align 4, !tbaa !42
  call void @llvm.lifetime.end.p0(i64 8, ptr %10) #14
  call void @llvm.lifetime.end.p0(i64 4, ptr %9) #14
  call void @llvm.lifetime.end.p0(i64 4, ptr %8) #14
  call void @llvm.lifetime.end.p0(i64 4, ptr %7) #14
  call void @llvm.lifetime.end.p0(i64 4, ptr %6) #14
  call void @llvm.lifetime.end.p0(i64 8, ptr %5) #14
  ret i32 %123
}