; Function Attrs: nounwind uwtable
define range(i32 0, -2147483648) i32 @Gia_ManLutLevel(ptr noundef readonly captures(none) %0, ptr noundef writeonly %1) local_unnamed_addr #4 {
  %3 = getelementptr i8, ptr %0, i64 24
  %.val52 = load i32, ptr %3, align 8, !tbaa !27
  %4 = sext i32 %.val52 to i64
  %5 = tail call noalias ptr @calloc(i64 noundef %4, i64 noundef 4) #26
  %6 = icmp sgt i32 %.val52, 1
  br i1 %6, label %.lr.ph66, label %.preheader

.lr.ph66:                                         ; preds = %2
  %7 = getelementptr i8, ptr %0, i64 264
  %.val53 = load ptr, ptr %7, align 8, !tbaa !46
  %8 = getelementptr i8, ptr %.val53, i64 8
  %.val53.val = load ptr, ptr %8, align 8, !tbaa !47
  %wide.trip.count78 = zext nneg i32 %.val52 to i64
  br label %16

.preheader:                                       ; preds = %32, %2
  %9 = getelementptr inbounds nuw i8, ptr %0, i64 72
  %10 = load ptr, ptr %9, align 8, !tbaa !53
  %11 = getelementptr i8, ptr %10, i64 4
  %.val5667 = load i32, ptr %11, align 4, !tbaa !54
  %12 = icmp sgt i32 %.val5667, 0
  br i1 %12, label %.lr.ph70, label %.critedge2

.lr.ph70:                                         ; preds = %.preheader
  %13 = getelementptr i8, ptr %0, i64 32
  %.val57 = load ptr, ptr %13, align 8, !tbaa !55
  %.not = icmp eq ptr %.val57, null
  br i1 %.not, label %.critedge2, label %.lr.ph70.split

.lr.ph70.split:                                   ; preds = %.lr.ph70
  %14 = getelementptr i8, ptr %10, i64 8
  %.val58.val = load ptr, ptr %14, align 8, !tbaa !47
  %15 = zext nneg i32 %.val5667 to i64
  br label %33

16:                                               ; preds = %.lr.ph66, %32
  %indvars.iv75 = phi i64 [ 1, %.lr.ph66 ], [ %indvars.iv.next76, %32 ]
  %17 = getelementptr inbounds nuw i32, ptr %.val53.val, i64 %indvars.iv75
  %18 = load i32, ptr %17, align 4, !tbaa !48
  %.not61 = icmp eq i32 %18, 0
  br i1 %.not61, label %32, label %.preheader62

.preheader62:                                     ; preds = %16
  %19 = sext i32 %18 to i64
  %20 = getelementptr inbounds i32, ptr %.val53.val, i64 %19
  %21 = load i32, ptr %20, align 4, !tbaa !48
  %22 = icmp sgt i32 %21, 0
  br i1 %22, label %.lr.ph, label %.critedge

.lr.ph:                                           ; preds = %.preheader62
  %23 = getelementptr inbounds nuw i8, ptr %20, i64 4
  %wide.trip.count = zext nneg i32 %21 to i64
  br label %24

24:                                               ; preds = %.lr.ph, %24
  %indvars.iv = phi i64 [ 0, %.lr.ph ], [ %indvars.iv.next, %24 ]
  %.04264 = phi i32 [ 0, %.lr.ph ], [ %spec.select, %24 ]
  %25 = getelementptr inbounds nuw i32, ptr %23, i64 %indvars.iv
  %26 = load i32, ptr %25, align 4, !tbaa !48
  %27 = sext i32 %26 to i64
  %28 = getelementptr inbounds i32, ptr %5, i64 %27
  %29 = load i32, ptr %28, align 4, !tbaa !48
  %spec.select = tail call i32 @llvm.smax.i32(i32 %.04264, i32 %29)
  %indvars.iv.next = add nuw nsw i64 %indvars.iv, 1
  %exitcond.not = icmp eq i64 %indvars.iv.next, %wide.trip.count
  br i1 %exitcond.not, label %.critedge.loopexit, label %24, !llvm.loop !56

.critedge.loopexit:                               ; preds = %24
  %30 = add nuw nsw i32 %spec.select, 1
  br label %.critedge

.critedge:                                        ; preds = %.critedge.loopexit, %.preheader62
  %.042.lcssa = phi i32 [ 1, %.preheader62 ], [ %30, %.critedge.loopexit ]
  %31 = getelementptr inbounds nuw i32, ptr %5, i64 %indvars.iv75
  store i32 %.042.lcssa, ptr %31, align 4, !tbaa !48
  br label %32

32:                                               ; preds = %.critedge, %16
  %indvars.iv.next76 = add nuw nsw i64 %indvars.iv75, 1
  %exitcond79.not = icmp eq i64 %indvars.iv.next76, %wide.trip.count78
  br i1 %exitcond79.not, label %.preheader, label %16, !llvm.loop !57

33:                                               ; preds = %.lr.ph70.split, %33
  %indvars.iv80 = phi i64 [ 0, %.lr.ph70.split ], [ %indvars.iv.next81, %33 ]
  %.269 = phi i32 [ 0, %.lr.ph70.split ], [ %44, %33 ]
  %34 = getelementptr inbounds nuw i32, ptr %.val58.val, i64 %indvars.iv80
  %35 = load i32, ptr %34, align 4, !tbaa !48
  %36 = sext i32 %35 to i64
  %37 = getelementptr inbounds %struct.Gia_Obj_t_, ptr %.val57, i64 %36
  %.val3.i = load i64, ptr %37, align 4
  %38 = trunc i64 %.val3.i to i32
  %39 = and i32 %38, 536870911
  %40 = sub nsw i32 %35, %39
  %41 = sext i32 %40 to i64
  %42 = getelementptr inbounds i32, ptr %5, i64 %41
  %43 = load i32, ptr %42, align 4, !tbaa !48
  %44 = tail call noundef i32 @llvm.smax.i32(i32 %.269, i32 %43)
  %45 = getelementptr inbounds i32, ptr %5, i64 %36
  store i32 %43, ptr %45, align 4, !tbaa !48
  %indvars.iv.next81 = add nuw nsw i64 %indvars.iv80, 1
  %46 = icmp samesign ult i64 %indvars.iv.next81, %15
  br i1 %46, label %33, label %.critedge2, !llvm.loop !58

.critedge2:                                       ; preds = %33, %.lr.ph70, %.preheader
  %.2.lcssa = phi i32 [ 0, %.preheader ], [ 0, %.lr.ph70 ], [ %44, %33 ]
  %.not49 = icmp eq ptr %1, null
  br i1 %.not49, label %48, label %47

47:                                               ; preds = %.critedge2
  store ptr %5, ptr %1, align 8, !tbaa !59
  br label %50

48:                                               ; preds = %.critedge2
  %.not50 = icmp eq ptr %5, null
  br i1 %.not50, label %50, label %49

49:                                               ; preds = %48
  tail call void @free(ptr noundef nonnull %5) #27
  br label %50

50:                                               ; preds = %49, %48, %47
  ret i32 %.2.lcssa
}